; Function Attrs: mustprogress uwtable
define noundef i32 @_ZN7Archive4ReadEPvm(ptr noundef nonnull align 8 dereferenceable(57108) %0, ptr noundef %1, i64 noundef %2) unnamed_addr #0 align 2 {
  %4 = alloca i64, align 8
  %5 = getelementptr inbounds i8, ptr %0, i64 11088
  %6 = call noundef zeroext i1 @_ZN9QuickOpen4ReadEPvmRm(ptr noundef nonnull align 8 dereferenceable(2673) %5, ptr noundef %1, i64 noundef %2, ptr noundef nonnull align 8 dereferenceable(8) %4)
  br i1 %6, label %7, label %10

7:                                                ; preds = %3
  %8 = load i64, ptr %4, align 8
  %9 = trunc i64 %8 to i32
  br label %12

10:                                               ; preds = %3
  %11 = call noundef i32 @_ZN4File4ReadEPvm(ptr noundef nonnull align 8 dereferenceable(8256) %0, ptr noundef %1, i64 noundef %2)
  br label %12

12:                                               ; preds = %10, %7
  %.0 = phi i32 [ %9, %7 ], [ %11, %10 ]
  ret i32 %.0
}